; Function Attrs: mustprogress nofree norecurse nosync nounwind willreturn memory(argmem: read) uwtable
define noundef range(i64 -25769803748, 25769803813) i64 @_ZNK8LightGBM8Metadata11SizesInByteEv(ptr noundef nonnull readonly align 8 captures(none) dereferenceable(300) %0) local_unnamed_addr #28 align 2 {
  %2 = getelementptr inbounds nuw i8, ptr %0, i64 32
  %3 = load i32, ptr %2, align 8, !tbaa !40
  %4 = sext i32 %3 to i64
  %5 = shl nsw i64 %4, 2
  %6 = and i32 %3, 1
  %7 = icmp eq i32 %6, 0
  %8 = and i64 %5, -8
  %9 = add nsw i64 %8, 8
  %.0.i = select i1 %7, i64 %5, i64 %9
  %10 = add nsw i64 %.0.i, 24
  %11 = getelementptr inbounds nuw i8, ptr %0, i64 72
  %12 = load ptr, ptr %11, align 8, !tbaa !99
  %13 = getelementptr inbounds nuw i8, ptr %0, i64 80
  %14 = load ptr, ptr %13, align 8, !tbaa !99
  %15 = icmp eq ptr %12, %14
  br i1 %15, label %26, label %16

16:                                               ; preds = %1
  %17 = getelementptr inbounds nuw i8, ptr %0, i64 36
  %18 = load i32, ptr %17, align 4, !tbaa !14
  %19 = sext i32 %18 to i64
  %20 = shl nsw i64 %19, 2
  %21 = and i32 %18, 1
  %22 = icmp eq i32 %21, 0
  %23 = and i64 %20, -8
  %24 = add nsw i64 %23, 8
  %.0.i4 = select i1 %22, i64 %20, i64 %24
  %25 = add nsw i64 %.0.i4, %10
  br label %26

26:                                               ; preds = %16, %1
  %.0 = phi i64 [ %10, %1 ], [ %25, %16 ]
  %27 = getelementptr inbounds nuw i8, ptr %0, i64 144
  %28 = load ptr, ptr %27, align 8, !tbaa !100
  %29 = getelementptr inbounds nuw i8, ptr %0, i64 152
  %30 = load ptr, ptr %29, align 8, !tbaa !100
  %31 = icmp eq ptr %28, %30
  br i1 %31, label %42, label %32

32:                                               ; preds = %26
  %33 = getelementptr inbounds nuw i8, ptr %0, i64 192
  %34 = load i32, ptr %33, align 8, !tbaa !42
  %35 = add nsw i32 %34, 1
  %36 = sext i32 %35 to i64
  %37 = shl nsw i64 %36, 2
  %38 = and i32 %34, 1
  %.not = icmp eq i32 %38, 0
  %39 = and i64 %37, -8
  %40 = add nsw i64 %39, 8
  %.0.i5 = select i1 %.not, i64 %40, i64 %37
  %41 = add nsw i64 %.0.i5, %.0
  br label %42

42:                                               ; preds = %32, %26
  %.1 = phi i64 [ %.0, %26 ], [ %41, %32 ]
  ret i64 %.1
}